; Function Attrs: nounwind uwtable
define i32 @pmix_bfrops_base_pack_buf(ptr noundef %0, ptr noundef %1, ptr noundef %2, i32 noundef %3, i16 noundef zeroext %4) local_unnamed_addr #0 {
  %6 = getelementptr inbounds nuw i8, ptr %0, i64 128
  %7 = getelementptr inbounds nuw i8, ptr %0, i64 152
  %8 = icmp sgt i32 %3, 0
  br i1 %8, label %.lr.ph.preheader, label %.thread

.lr.ph.preheader:                                 ; preds = %5
  %wide.trip.count = zext nneg i32 %3 to i64
  br label %.lr.ph

.lr.ph:                                           ; preds = %.lr.ph.preheader, %47
  %indvars.iv = phi i64 [ 0, %.lr.ph.preheader ], [ %indvars.iv.next, %47 ]
  %9 = load i32, ptr %6, align 8, !tbaa !15
  %.not.i = icmp sgt i32 %9, 2
  br i1 %.not.i, label %pmix_pointer_array_get_item.exit, label %.thread, !prof !18

pmix_pointer_array_get_item.exit:                 ; preds = %.lr.ph
  %10 = load ptr, ptr %7, align 8, !tbaa !19
  %11 = getelementptr inbounds nuw i8, ptr %10, i64 16
  %12 = load ptr, ptr %11, align 8, !tbaa !20
  %13 = icmp eq ptr %12, null
  br i1 %13, label %.thread, label %14

14:                                               ; preds = %pmix_pointer_array_get_item.exit
  %15 = getelementptr inbounds nuw i8, ptr %12, i64 136
  %16 = load ptr, ptr %15, align 8, !tbaa !21
  %17 = getelementptr inbounds nuw %struct.pmix_buffer_t, ptr %2, i64 %indvars.iv, i32 1
  %18 = tail call i32 %16(ptr noundef nonnull %0, ptr noundef %1, ptr noundef nonnull %17, i32 noundef 1, i16 noundef zeroext 2) #8
  %.not = icmp eq i32 %18, 0
  br i1 %.not, label %19, label %.thread

19:                                               ; preds = %14
  %20 = load i32, ptr %6, align 8, !tbaa !15
  %.not.i43 = icmp sgt i32 %20, 4
  br i1 %.not.i43, label %pmix_pointer_array_get_item.exit45, label %.thread, !prof !18

pmix_pointer_array_get_item.exit45:               ; preds = %19
  %21 = load ptr, ptr %7, align 8, !tbaa !19
  %22 = getelementptr inbounds nuw i8, ptr %21, i64 32
  %23 = load ptr, ptr %22, align 8, !tbaa !20
  %24 = icmp eq ptr %23, null
  br i1 %24, label %.thread, label %25

25:                                               ; preds = %pmix_pointer_array_get_item.exit45
  %26 = getelementptr inbounds nuw i8, ptr %23, i64 136
  %27 = load ptr, ptr %26, align 8, !tbaa !21
  %28 = getelementptr inbounds nuw %struct.pmix_buffer_t, ptr %2, i64 %indvars.iv, i32 6
  %29 = tail call i32 %27(ptr noundef nonnull %0, ptr noundef %1, ptr noundef nonnull %28, i32 noundef 1, i16 noundef zeroext 4) #8
  %.not40 = icmp eq i32 %29, 0
  br i1 %.not40, label %30, label %.thread

30:                                               ; preds = %25
  %31 = getelementptr inbounds nuw %struct.pmix_buffer_t, ptr %2, i64 %indvars.iv
  %32 = getelementptr inbounds nuw i8, ptr %31, i64 160
  %33 = load i64, ptr %32, align 8, !tbaa !40
  %.not41 = icmp eq i64 %33, 0
  br i1 %.not41, label %47, label %34

34:                                               ; preds = %30
  %35 = load i32, ptr %6, align 8, !tbaa !15
  %.not.i46 = icmp sgt i32 %35, 2
  br i1 %.not.i46, label %pmix_pointer_array_get_item.exit48, label %.thread, !prof !18

pmix_pointer_array_get_item.exit48:               ; preds = %34
  %36 = load ptr, ptr %7, align 8, !tbaa !19
  %37 = getelementptr inbounds nuw i8, ptr %36, i64 16
  %38 = load ptr, ptr %37, align 8, !tbaa !20
  %39 = icmp eq ptr %38, null
  br i1 %39, label %.thread, label %40

40:                                               ; preds = %pmix_pointer_array_get_item.exit48
  %41 = getelementptr inbounds nuw i8, ptr %38, i64 136
  %42 = load ptr, ptr %41, align 8, !tbaa !21
  %43 = getelementptr inbounds nuw i8, ptr %31, i64 128
  %44 = load ptr, ptr %43, align 8, !tbaa !60
  %45 = trunc i64 %33 to i32
  %46 = tail call i32 %42(ptr noundef nonnull %0, ptr noundef %1, ptr noundef %44, i32 noundef %45, i16 noundef zeroext 2) #8
  %.not42 = icmp eq i32 %46, 0
  br i1 %.not42, label %47, label %.thread

47:                                               ; preds = %30, %40
  %indvars.iv.next = add nuw nsw i64 %indvars.iv, 1
  %exitcond.not = icmp eq i64 %indvars.iv.next, %wide.trip.count
  br i1 %exitcond.not, label %.thread, label %.lr.ph, !llvm.loop !61

.thread:                                          ; preds = %14, %25, %40, %47, %pmix_pointer_array_get_item.exit, %.lr.ph, %pmix_pointer_array_get_item.exit45, %19, %pmix_pointer_array_get_item.exit48, %34, %5
  %.0 = phi i32 [ 0, %5 ], [ -16, %34 ], [ -16, %pmix_pointer_array_get_item.exit48 ], [ -16, %19 ], [ -16, %pmix_pointer_array_get_item.exit45 ], [ -16, %.lr.ph ], [ -16, %pmix_pointer_array_get_item.exit ], [ 0, %47 ], [ %46, %40 ], [ %29, %25 ], [ %18, %14 ]
  ret i32 %.0
}